target datalayout = "e-m:e-p270:32:32-p271:32:32-p272:64:64-i64:64-i128:128-f80:128-n8:16:32:64-S128"
target triple = "x86_64-pc-linux-gnu"

%union.anon = type { %struct.QTailQLink }
%struct.QTailQLink = type { ptr, ptr }
%struct.QemuMutex = type { %union.pthread_mutex_t, i8 }
%union.pthread_mutex_t = type { %struct.__pthread_mutex_s }
%struct.__pthread_mutex_s = type { i32, i32, i32, i32, i32, i16, i16, %struct.__pthread_internal_list }
%struct.__pthread_internal_list = type { ptr, ptr }
%struct.BlockDriverState = type { i32, i8, i8, i8, i8, i8, ptr, ptr, ptr, %struct.anon, i8, [4096 x i8], [4096 x i8], [4096 x i8], [16 x i8], ptr, [4096 x i8], %struct.BlockLimits, i32, i32, i32, i32, [32 x i8], %union.anon.0, %union.anon.1, %union.anon.2, i32, [15 x %struct.anon.3], ptr, %struct.anon.4, ptr, ptr, %struct.anon.5, ptr, ptr, i32, ptr, i64, i64, %struct.QemuMutex, %struct.anon.6, %struct.Stat64, i32, i32, i32, i32, i32, i32, %struct.QemuMutex, %struct.anon.7, %struct.CoQueue, i8, i32, i8, %struct.CoMutex, ptr, ptr }
%struct.anon = type { ptr }
%struct.BlockLimits = type { i32, i64, i32, i64, i32, i32, i32, i64, i32, i64, i64, i32, i8, i32, i32, i32, i32, i32, i32, i32 }
%union.anon.0 = type { %struct.QTailQLink }
%union.anon.1 = type { %struct.QTailQLink }
%union.anon.2 = type { %struct.QTailQLink }
%struct.anon.3 = type { ptr }
%struct.anon.4 = type { ptr }
%struct.anon.5 = type { ptr }
%struct.anon.6 = type { ptr }
%struct.Stat64 = type { i64 }
%struct.anon.7 = type { ptr }
%struct.CoQueue = type { %struct.anon.8 }
%struct.anon.8 = type { ptr, ptr }
%struct.CoMutex = type { i32, ptr, %struct.anon.9, %struct.anon.9, i32, i32, ptr }
%struct.anon.9 = type { ptr }

@monitor_bdrv_states = dso_local global %union.anon { %struct.QTailQLink { ptr null, ptr @monitor_bdrv_states } }, align 8
@.str = private unnamed_addr constant [22 x i8] c"qemu_in_main_thread()\00", align 1
@.str.1 = private unnamed_addr constant [19 x i8] c"../qemu/blockdev.c\00", align 1
@__PRETTY_FUNCTION__.bdrv_set_monitor_owned = private unnamed_addr constant [48 x i8] c"void bdrv_set_monitor_owned(BlockDriverState *)\00", align 1

; Function Attrs: nounwind sspstrong uwtable
define dso_local void @bdrv_set_monitor_owned(ptr noundef %0) #0 {
  %2 = alloca ptr, align 8
  store ptr %0, ptr %2, align 8
  br label %3

3:                                                ; preds = %1
  %4 = call zeroext i1 @qemu_in_main_thread()
  br i1 %4, label %5, label %6

5:                                                ; preds = %3
  br label %7

6:                                                ; preds = %3
  call void @__assert_fail(ptr noundef @.str, ptr noundef @.str.1, i32 noundef 73, ptr noundef @__PRETTY_FUNCTION__.bdrv_set_monitor_owned) #15
  unreachable

7:                                                ; preds = %5
  br label %8

8:                                                ; preds = %7
  br label %9

9:                                                ; preds = %8
  %10 = load ptr, ptr %2, align 8
  %11 = getelementptr inbounds nuw %struct.BlockDriverState, ptr %10, i32 0, i32 25
  store ptr null, ptr %11, align 8
  %12 = load ptr, ptr getelementptr inbounds nuw (%struct.QTailQLink, ptr @monitor_bdrv_states, i32 0, i32 1), align 8
  %13 = load ptr, ptr %2, align 8
  %14 = getelementptr inbounds nuw %struct.BlockDriverState, ptr %13, i32 0, i32 25
  %15 = getelementptr inbounds nuw %struct.QTailQLink, ptr %14, i32 0, i32 1
  store ptr %12, ptr %15, align 8
  %16 = load ptr, ptr %2, align 8
  %17 = load ptr, ptr getelementptr inbounds nuw (%struct.QTailQLink, ptr @monitor_bdrv_states, i32 0, i32 1), align 8
  %18 = getelementptr inbounds nuw %struct.QTailQLink, ptr %17, i32 0, i32 0
  store ptr %16, ptr %18, align 8
  %19 = load ptr, ptr %2, align 8
  %20 = getelementptr inbounds nuw %struct.BlockDriverState, ptr %19, i32 0, i32 25
  store ptr %20, ptr getelementptr inbounds nuw (%struct.QTailQLink, ptr @monitor_bdrv_states, i32 0, i32 1), align 8
  br label %21

21:                                               ; preds = %9
  ret void
}