; Function Attrs: nounwind sspstrong uwtable
define dso_local void @bdrv_set_monitor_owned(ptr noundef %0) local_unnamed_addr #0 {
  %2 = tail call zeroext i1 @qemu_in_main_thread() #14
  br i1 %2, label %4, label %3

3:                                                ; preds = %1
  tail call void @__assert_fail(ptr noundef nonnull @.str, ptr noundef nonnull @.str.1, i32 noundef 73, ptr noundef nonnull @__PRETTY_FUNCTION__.bdrv_set_monitor_owned) #15
  unreachable

4:                                                ; preds = %1
  %5 = getelementptr inbounds nuw i8, ptr %0, i64 16664
  store ptr null, ptr %5, align 8
  %6 = load ptr, ptr getelementptr inbounds nuw (i8, ptr @monitor_bdrv_states, i64 8), align 8
  %7 = getelementptr inbounds nuw i8, ptr %0, i64 16672
  store ptr %6, ptr %7, align 8
  store ptr %0, ptr %6, align 8
  store ptr %5, ptr getelementptr inbounds nuw (i8, ptr @monitor_bdrv_states, i64 8), align 8
  ret void
}